target datalayout = "e-m:e-p270:32:32-p271:32:32-p272:64:64-i64:64-i128:128-f80:128-n8:16:32:64-S128"
target triple = "x86_64-pc-linux-gnu"

%"class.VrmlTranslator::Parser" = type { i32, ptr, i32, i32, ptr, ptr, ptr, ptr, ptr, %"class.std::map", %"class.std::set", %"class.std::set" }
%"class.std::map" = type { %"class.std::_Rb_tree" }
%"class.std::_Rb_tree" = type { %"struct.std::_Rb_tree<QString, std::pair<const QString, QString>, std::_Select1st<std::pair<const QString, QString>>, std::less<QString>>::_Rb_tree_impl" }
%"struct.std::_Rb_tree<QString, std::pair<const QString, QString>, std::_Select1st<std::pair<const QString, QString>>, std::less<QString>>::_Rb_tree_impl" = type { %"struct.std::_Rb_tree_key_compare", %"struct.std::_Rb_tree_header" }
%"struct.std::_Rb_tree_key_compare" = type { %"struct.std::less" }
%"struct.std::less" = type { i8 }
%"struct.std::_Rb_tree_header" = type { %"struct.std::_Rb_tree_node_base", i64 }
%"struct.std::_Rb_tree_node_base" = type { i32, ptr, ptr, ptr }
%"class.std::set" = type { %"class.std::_Rb_tree.0" }
%"class.std::_Rb_tree.0" = type { %"struct.std::_Rb_tree<QString, QString, std::_Identity<QString>, std::less<QString>>::_Rb_tree_impl" }
%"struct.std::_Rb_tree<QString, QString, std::_Identity<QString>, std::less<QString>>::_Rb_tree_impl" = type { %"struct.std::_Rb_tree_key_compare", %"struct.std::_Rb_tree_header" }
%"class.VrmlTranslator::Token" = type { i32, i32, i32, i32, ptr, ptr }

; Function Attrs: mustprogress uwtable
define void @_ZN14VrmlTranslator6Parser3GetEv(ptr noundef nonnull align 8 dereferenceable(208) %0) #0 align 2 {
  %2 = alloca ptr, align 8
  store ptr %0, ptr %2, align 8
  %3 = load ptr, ptr %2, align 8
  br label %4

4:                                                ; preds = %75, %1
  %5 = getelementptr inbounds %"class.VrmlTranslator::Parser", ptr %3, i32 0, i32 7
  %6 = load ptr, ptr %5, align 8
  %7 = getelementptr inbounds %"class.VrmlTranslator::Parser", ptr %3, i32 0, i32 6
  store ptr %6, ptr %7, align 8
  %8 = getelementptr inbounds %"class.VrmlTranslator::Parser", ptr %3, i32 0, i32 4
  %9 = load ptr, ptr %8, align 8
  %10 = call noundef ptr @_ZN14VrmlTranslator7Scanner4ScanEv(ptr noundef nonnull align 8 dereferenceable(160) %9)
  %11 = getelementptr inbounds %"class.VrmlTranslator::Parser", ptr %3, i32 0, i32 7
  store ptr %10, ptr %11, align 8
  %12 = getelementptr inbounds %"class.VrmlTranslator::Parser", ptr %3, i32 0, i32 7
  %13 = load ptr, ptr %12, align 8
  %14 = getelementptr inbounds %"class.VrmlTranslator::Token", ptr %13, i32 0, i32 0
  %15 = load i32, ptr %14, align 8
  %16 = getelementptr inbounds %"class.VrmlTranslator::Parser", ptr %3, i32 0, i32 0
  %17 = load i32, ptr %16, align 8
  %18 = icmp sle i32 %15, %17
  br i1 %18, label %19, label %23

19:                                               ; preds = %4
  %20 = getelementptr inbounds %"class.VrmlTranslator::Parser", ptr %3, i32 0, i32 2
  %21 = load i32, ptr %20, align 8
  %22 = add nsw i32 %21, 1
  store i32 %22, ptr %20, align 8
  br label %79

23:                                               ; preds = %4
  %24 = getelementptr inbounds %"class.VrmlTranslator::Parser", ptr %3, i32 0, i32 1
  %25 = load ptr, ptr %24, align 8
  %26 = getelementptr inbounds %"class.VrmlTranslator::Parser", ptr %3, i32 0, i32 6
  %27 = load ptr, ptr %26, align 8
  %28 = icmp ne ptr %25, %27
  br i1 %28, label %29, label %75

29:                                               ; preds = %23
  %30 = getelementptr inbounds %"class.VrmlTranslator::Parser", ptr %3, i32 0, i32 6
  %31 = load ptr, ptr %30, align 8
  %32 = getelementptr inbounds %"class.VrmlTranslator::Token", ptr %31, i32 0, i32 0
  %33 = load i32, ptr %32, align 8
  %34 = getelementptr inbounds %"class.VrmlTranslator::Parser", ptr %3, i32 0, i32 1
  %35 = load ptr, ptr %34, align 8
  %36 = getelementptr inbounds %"class.VrmlTranslator::Token", ptr %35, i32 0, i32 0
  store i32 %33, ptr %36, align 8
  %37 = getelementptr inbounds %"class.VrmlTranslator::Parser", ptr %3, i32 0, i32 6
  %38 = load ptr, ptr %37, align 8
  %39 = getelementptr inbounds %"class.VrmlTranslator::Token", ptr %38, i32 0, i32 1
  %40 = load i32, ptr %39, align 4
  %41 = getelementptr inbounds %"class.VrmlTranslator::Parser", ptr %3, i32 0, i32 1
  %42 = load ptr, ptr %41, align 8
  %43 = getelementptr inbounds %"class.VrmlTranslator::Token", ptr %42, i32 0, i32 1
  store i32 %40, ptr %43, align 4
  %44 = getelementptr inbounds %"class.VrmlTranslator::Parser", ptr %3, i32 0, i32 6
  %45 = load ptr, ptr %44, align 8
  %46 = getelementptr inbounds %"class.VrmlTranslator::Token", ptr %45, i32 0, i32 2
  %47 = load i32, ptr %46, align 8
  %48 = getelementptr inbounds %"class.VrmlTranslator::Parser", ptr %3, i32 0, i32 1
  %49 = load ptr, ptr %48, align 8
  %50 = getelementptr inbounds %"class.VrmlTranslator::Token", ptr %49, i32 0, i32 2
  store i32 %47, ptr %50, align 8
  %51 = getelementptr inbounds %"class.VrmlTranslator::Parser", ptr %3, i32 0, i32 6
  %52 = load ptr, ptr %51, align 8
  %53 = getelementptr inbounds %"class.VrmlTranslator::Token", ptr %52, i32 0, i32 3
  %54 = load i32, ptr %53, align 4
  %55 = getelementptr inbounds %"class.VrmlTranslator::Parser", ptr %3, i32 0, i32 1
  %56 = load ptr, ptr %55, align 8
  %57 = getelementptr inbounds %"class.VrmlTranslator::Token", ptr %56, i32 0, i32 3
  store i32 %54, ptr %57, align 4
  %58 = getelementptr inbounds %"class.VrmlTranslator::Parser", ptr %3, i32 0, i32 1
  %59 = load ptr, ptr %58, align 8
  %60 = getelementptr inbounds %"class.VrmlTranslator::Token", ptr %59, i32 0, i32 5
  store ptr null, ptr %60, align 8
  %61 = getelementptr inbounds %"class.VrmlTranslator::Parser", ptr %3, i32 0, i32 1
  %62 = load ptr, ptr %61, align 8
  %63 = getelementptr inbounds %"class.VrmlTranslator::Token", ptr %62, i32 0, i32 4
  call void @_Z18coco_string_deleteRPw(ptr noundef nonnull align 8 dereferenceable(8) %63)
  %64 = getelementptr inbounds %"class.VrmlTranslator::Parser", ptr %3, i32 0, i32 6
  %65 = load ptr, ptr %64, align 8
  %66 = getelementptr inbounds %"class.VrmlTranslator::Token", ptr %65, i32 0, i32 4
  %67 = load ptr, ptr %66, align 8
  %68 = call noundef ptr @_Z18coco_string_createPKw(ptr noundef %67)
  %69 = getelementptr inbounds %"class.VrmlTranslator::Parser", ptr %3, i32 0, i32 1
  %70 = load ptr, ptr %69, align 8
  %71 = getelementptr inbounds %"class.VrmlTranslator::Token", ptr %70, i32 0, i32 4
  store ptr %68, ptr %71, align 8
  %72 = getelementptr inbounds %"class.VrmlTranslator::Parser", ptr %3, i32 0, i32 1
  %73 = load ptr, ptr %72, align 8
  %74 = getelementptr inbounds %"class.VrmlTranslator::Parser", ptr %3, i32 0, i32 6
  store ptr %73, ptr %74, align 8
  br label %75

75:                                               ; preds = %29, %23
  %76 = getelementptr inbounds %"class.VrmlTranslator::Parser", ptr %3, i32 0, i32 6
  %77 = load ptr, ptr %76, align 8
  %78 = getelementptr inbounds %"class.VrmlTranslator::Parser", ptr %3, i32 0, i32 7
  store ptr %77, ptr %78, align 8
  br label %4, !llvm.loop !5

79:                                               ; preds = %19
  ret void
}