; Function Attrs: mustprogress uwtable
define void @_ZN14VrmlTranslator6Parser3GetEv(ptr noundef nonnull align 8 captures(none) dereferenceable(208) initializes((40, 48)) %0) local_unnamed_addr #0 align 2 {
  %2 = getelementptr inbounds nuw i8, ptr %0, i64 48
  %3 = getelementptr inbounds nuw i8, ptr %0, i64 40
  %4 = getelementptr inbounds nuw i8, ptr %0, i64 24
  %5 = load ptr, ptr %2, align 8
  store ptr %5, ptr %3, align 8
  %6 = load ptr, ptr %4, align 8
  %7 = tail call noundef ptr @_ZN14VrmlTranslator7Scanner4ScanEv(ptr noundef nonnull align 8 dereferenceable(160) %6)
  store ptr %7, ptr %2, align 8
  %8 = load i32, ptr %7, align 8
  %9 = load i32, ptr %0, align 8
  %.not3 = icmp sgt i32 %8, %9
  br i1 %.not3, label %.lr.ph, label %._crit_edge

.lr.ph:                                           ; preds = %1
  %10 = getelementptr inbounds nuw i8, ptr %0, i64 8
  br label %14

._crit_edge:                                      ; preds = %45, %1
  %11 = getelementptr inbounds nuw i8, ptr %0, i64 16
  %12 = load i32, ptr %11, align 8
  %13 = add nsw i32 %12, 1
  store i32 %13, ptr %11, align 8
  ret void

14:                                               ; preds = %.lr.ph, %45
  %15 = load ptr, ptr %10, align 8
  %16 = load ptr, ptr %3, align 8
  %.not2 = icmp eq ptr %15, %16
  br i1 %.not2, label %45, label %17

17:                                               ; preds = %14
  %18 = load i32, ptr %16, align 8
  store i32 %18, ptr %15, align 8
  %19 = load ptr, ptr %3, align 8
  %20 = getelementptr inbounds nuw i8, ptr %19, i64 4
  %21 = load i32, ptr %20, align 4
  %22 = load ptr, ptr %10, align 8
  %23 = getelementptr inbounds nuw i8, ptr %22, i64 4
  store i32 %21, ptr %23, align 4
  %24 = load ptr, ptr %3, align 8
  %25 = getelementptr inbounds nuw i8, ptr %24, i64 8
  %26 = load i32, ptr %25, align 8
  %27 = load ptr, ptr %10, align 8
  %28 = getelementptr inbounds nuw i8, ptr %27, i64 8
  store i32 %26, ptr %28, align 8
  %29 = load ptr, ptr %3, align 8
  %30 = getelementptr inbounds nuw i8, ptr %29, i64 12
  %31 = load i32, ptr %30, align 4
  %32 = load ptr, ptr %10, align 8
  %33 = getelementptr inbounds nuw i8, ptr %32, i64 12
  store i32 %31, ptr %33, align 4
  %34 = load ptr, ptr %10, align 8
  %35 = getelementptr inbounds nuw i8, ptr %34, i64 24
  store ptr null, ptr %35, align 8
  %36 = load ptr, ptr %10, align 8
  %37 = getelementptr inbounds nuw i8, ptr %36, i64 16
  tail call void @_Z18coco_string_deleteRPw(ptr noundef nonnull align 8 dereferenceable(8) %37)
  %38 = load ptr, ptr %3, align 8
  %39 = getelementptr inbounds nuw i8, ptr %38, i64 16
  %40 = load ptr, ptr %39, align 8
  %41 = tail call noundef ptr @_Z18coco_string_createPKw(ptr noundef %40)
  %42 = load ptr, ptr %10, align 8
  %43 = getelementptr inbounds nuw i8, ptr %42, i64 16
  store ptr %41, ptr %43, align 8
  %44 = load ptr, ptr %10, align 8
  br label %45

45:                                               ; preds = %17, %14
  %46 = phi ptr [ %44, %17 ], [ %16, %14 ]
  store ptr %46, ptr %2, align 8
  store ptr %46, ptr %3, align 8
  %47 = load ptr, ptr %4, align 8
  %48 = tail call noundef ptr @_ZN14VrmlTranslator7Scanner4ScanEv(ptr noundef nonnull align 8 dereferenceable(160) %47)
  store ptr %48, ptr %2, align 8
  %49 = load i32, ptr %48, align 8
  %50 = load i32, ptr %0, align 8
  %.not = icmp sgt i32 %49, %50
  br i1 %.not, label %14, label %._crit_edge, !llvm.loop !5
}